target datalayout = "e-m:e-p270:32:32-p271:32:32-p272:64:64-i64:64-i128:128-f80:128-n8:16:32:64-S128"
target triple = "x86_64-unknown-linux-gnu"

%"class.sat::literal" = type { i32 }
%"class.arith::sls" = type <{ %"class.sat::local_search_plugin", ptr, ptr, ptr, %"struct.arith::sls::stats", [4 x i8], %"struct.arith::sls::config", %class.scoped_ptr_vector, %class.vector.0, %class.svector, i8, [7 x i8] }>
%"class.sat::local_search_plugin" = type { ptr }
%"struct.arith::sls::stats" = type { i32 }
%"struct.arith::sls::config" = type { double, i32, i32, i32, double }
%class.scoped_ptr_vector = type { %class.ptr_vector }
%class.ptr_vector = type { %class.vector }
%class.vector = type { ptr }
%class.vector.0 = type { ptr }
%class.svector = type { %class.vector.1 }
%class.vector.1 = type { ptr }

@.str = private unnamed_addr constant [2 x i8] c"\0A\00", align 1
@.str.19 = private unnamed_addr constant [28 x i8] c"no inequality for variable \00", align 1

; Function Attrs: mustprogress nounwind uwtable
define linkonce_odr hidden noundef nonnull align 8 dereferenceable(8) ptr @_ZNK6vectorIPN5arith3sls4ineqELb0EjEixEj(ptr noundef nonnull align 8 dereferenceable(8) %this, i32 noundef %idx) #4 comdat align 2 {
entry:
  %this.addr = alloca ptr, align 8
  %idx.addr = alloca i32, align 4
  store ptr %this, ptr %this.addr, align 8
  store i32 %idx, ptr %idx.addr, align 4
  %this1 = load ptr, ptr %this.addr, align 8
  %m_data = getelementptr inbounds %class.vector, ptr %this1, i32 0, i32 0
  %0 = load ptr, ptr %m_data, align 8
  %1 = load i32, ptr %idx.addr, align 4
  %idxprom = zext i32 %1 to i64
  %arrayidx = getelementptr inbounds ptr, ptr %0, i64 %idxprom
  ret ptr %arrayidx
}

; Function Attrs: mustprogress uwtable
define linkonce_odr hidden noundef ptr @_ZNK17scoped_ptr_vectorIN5arith3sls4ineqEEixEj(ptr noundef nonnull align 8 dereferenceable(8) %this, i32 noundef %idx) #5 comdat align 2 {
entry:
  %this.addr = alloca ptr, align 8
  %idx.addr = alloca i32, align 4
  store ptr %this, ptr %this.addr, align 8
  store i32 %idx, ptr %idx.addr, align 4
  %this1 = load ptr, ptr %this.addr, align 8
  %m_vector = getelementptr inbounds %class.scoped_ptr_vector, ptr %this1, i32 0, i32 0
  %0 = load i32, ptr %idx.addr, align 4
  %call = call noundef nonnull align 8 dereferenceable(8) ptr @_ZNK6vectorIPN5arith3sls4ineqELb0EjEixEj(ptr noundef nonnull align 8 dereferenceable(8) %m_vector, i32 noundef %0)
  %1 = load ptr, ptr %call, align 8
  ret ptr %1
}

; Function Attrs: mustprogress uwtable
define linkonce_odr hidden noundef ptr @_ZNK5arith3sls4atomEj(ptr noundef nonnull align 8 dereferenceable(97) %this, i32 noundef %bv) #5 comdat align 2 {
entry:
  %this.addr = alloca ptr, align 8
  %bv.addr = alloca i32, align 4
  store ptr %this, ptr %this.addr, align 8
  store i32 %bv, ptr %bv.addr, align 4
  %this1 = load ptr, ptr %this.addr, align 8
  %m_bool_vars = getelementptr inbounds %"class.arith::sls", ptr %this1, i32 0, i32 7
  %0 = load i32, ptr %bv.addr, align 4
  %call = call noundef ptr @_ZNK17scoped_ptr_vectorIN5arith3sls4ineqEEixEj(ptr noundef nonnull align 8 dereferenceable(8) %m_bool_vars, i32 noundef %0)
  ret ptr %call
}

; Function Attrs: mustprogress nounwind uwtable
define linkonce_odr hidden void @_ZN3sat7literalC2Ejb(ptr noundef nonnull align 4 dereferenceable(4) %this, i32 noundef %v, i1 noundef zeroext %_sign) unnamed_addr #4 comdat align 2 {
entry:
  %this.addr = alloca ptr, align 8
  %v.addr = alloca i32, align 4
  %_sign.addr = alloca i8, align 1
  store ptr %this, ptr %this.addr, align 8
  store i32 %v, ptr %v.addr, align 4
  %frombool = zext i1 %_sign to i8
  store i8 %frombool, ptr %_sign.addr, align 1
  %this1 = load ptr, ptr %this.addr, align 8
  %m_val = getelementptr inbounds %"class.sat::literal", ptr %this1, i32 0, i32 0
  %0 = load i32, ptr %v.addr, align 4
  %shl = shl i32 %0, 1
  %1 = load i8, ptr %_sign.addr, align 1
  %tobool = trunc i8 %1 to i1
  %conv = zext i1 %tobool to i32
  %add = add i32 %shl, %conv
  store i32 %add, ptr %m_val, align 4
  ret void
}

; Function Attrs: mustprogress uwtable
define linkonce_odr hidden noundef zeroext i1 @_ZNK5arith3sls4signEj(ptr noundef nonnull align 8 dereferenceable(97) %this, i32 noundef %v) #5 comdat align 2 {
entry:
  %this.addr = alloca ptr, align 8
  %v.addr = alloca i32, align 4
  store ptr %this, ptr %this.addr, align 8
  store i32 %v, ptr %v.addr, align 4
  %this1 = load ptr, ptr %this.addr, align 8
  %m_bool_search = getelementptr inbounds %"class.arith::sls", ptr %this1, i32 0, i32 3
  %0 = load ptr, ptr %m_bool_search, align 8
  %1 = load i32, ptr %v.addr, align 4
  %vtable = load ptr, ptr %0, align 8
  %vfn = getelementptr inbounds ptr, ptr %vtable, i64 12
  %2 = load ptr, ptr %vfn, align 8
  %call = call noundef zeroext i1 %2(ptr noundef nonnull align 8 dereferenceable(920) %0, i32 noundef %1)
  %lnot = xor i1 %call, true
  ret i1 %lnot
}

; Function Attrs: mustprogress uwtable
define hidden void @_ZN5arith3sls4flipEj(ptr noundef nonnull align 8 dereferenceable(97) %this, i32 noundef %v) unnamed_addr #5 align 2 {
entry:
  %this.addr = alloca ptr, align 8
  %v.addr = alloca i32, align 4
  %lit = alloca %"class.sat::literal", align 4
  %ineq = alloca ptr, align 8
  store ptr %this, ptr %this.addr, align 8
  store i32 %v, ptr %v.addr, align 4
  %this1 = load ptr, ptr %this.addr, align 8
  %0 = load i32, ptr %v.addr, align 4
  %1 = load i32, ptr %v.addr, align 4
  %call = call noundef zeroext i1 @_ZNK5arith3sls4signEj(ptr noundef nonnull align 8 dereferenceable(97) %this1, i32 noundef %1)
  %lnot = xor i1 %call, true
  call void @_ZN3sat7literalC2Ejb(ptr noundef nonnull align 4 dereferenceable(4) %lit, i32 noundef %0, i1 noundef zeroext %lnot)
  %2 = load i32, ptr %v.addr, align 4
  %call2 = call noundef ptr @_ZNK5arith3sls4atomEj(ptr noundef nonnull align 8 dereferenceable(97) %this1, i32 noundef %2)
  store ptr %call2, ptr %ineq, align 8
  %3 = load ptr, ptr %ineq, align 8
  %tobool = icmp ne ptr %3, null
  br i1 %tobool, label %if.end16, label %if.then

if.then:                                          ; preds = %entry
  %call3 = call noundef i32 @_Z19get_verbosity_levelv()
  %cmp = icmp uge i32 %call3, 0
  br i1 %cmp, label %if.then4, label %if.end15

if.then4:                                         ; preds = %if.then
  %call5 = call noundef zeroext i1 @_Z11is_threadedv()
  br i1 %call5, label %if.then6, label %if.else

if.then6:                                         ; preds = %if.then4
  call void @_Z12verbose_lockv()
  %call7 = call noundef nonnull align 8 dereferenceable(8) ptr @_Z14verbose_streamv()
  %call8 = call noundef nonnull align 8 dereferenceable(8) ptr @_ZStlsISt11char_traitsIcEERSt13basic_ostreamIcT_ES5_PKc(ptr noundef nonnull align 8 dereferenceable(8) %call7, ptr noundef @.str.19)
  %4 = load i32, ptr %v.addr, align 4
  %call9 = call noundef nonnull align 8 dereferenceable(8) ptr @_ZNSolsEj(ptr noundef nonnull align 8 dereferenceable(8) %call8, i32 noundef %4)
  %call10 = call noundef nonnull align 8 dereferenceable(8) ptr @_ZStlsISt11char_traitsIcEERSt13basic_ostreamIcT_ES5_PKc(ptr noundef nonnull align 8 dereferenceable(8) %call9, ptr noundef @.str)
  call void @_Z14verbose_unlockv()
  br label %if.end

if.else:                                          ; preds = %if.then4
  %call11 = call noundef nonnull align 8 dereferenceable(8) ptr @_Z14verbose_streamv()
  %call12 = call noundef nonnull align 8 dereferenceable(8) ptr @_ZStlsISt11char_traitsIcEERSt13basic_ostreamIcT_ES5_PKc(ptr noundef nonnull align 8 dereferenceable(8) %call11, ptr noundef @.str.19)
  %5 = load i32, ptr %v.addr, align 4
  %call13 = call noundef nonnull align 8 dereferenceable(8) ptr @_ZNSolsEj(ptr noundef nonnull align 8 dereferenceable(8) %call12, i32 noundef %5)
  %call14 = call noundef nonnull align 8 dereferenceable(8) ptr @_ZStlsISt11char_traitsIcEERSt13basic_ostreamIcT_ES5_PKc(ptr noundef nonnull align 8 dereferenceable(8) %call13, ptr noundef @.str)
  br label %if.end

if.end:                                           ; preds = %if.else, %if.then6
  br label %if.end15

if.end15:                                         ; preds = %if.end, %if.then
  br label %if.end16

if.end16:                                         ; preds = %if.end15, %entry
  %6 = load ptr, ptr %ineq, align 8
  %tobool17 = icmp ne ptr %6, null
  br i1 %tobool17, label %if.end19, label %if.then18

if.then18:                                        ; preds = %if.end16
  br label %return

if.end19:                                         ; preds = %if.end16
  %7 = load i32, ptr %v.addr, align 4
  %call20 = call noundef zeroext i1 @_ZNK5arith3sls4signEj(ptr noundef nonnull align 8 dereferenceable(97) %this1, i32 noundef %7)
  %8 = load ptr, ptr %ineq, align 8
  %call21 = call noundef zeroext i1 @_ZN5arith3sls4flipEbRKNS0_4ineqE(ptr noundef nonnull align 8 dereferenceable(97) %this1, i1 noundef zeroext %call20, ptr noundef nonnull align 8 dereferenceable(36) %8)
  br label %return

return:                                           ; preds = %if.end19, %if.then18
  ret void
}