; Function Attrs: mustprogress uwtable
define hidden void @_ZN5arith3sls4flipEj(ptr noundef nonnull align 8 dereferenceable(97) %this, i32 noundef %v) unnamed_addr #5 align 2 {
entry:
  %m_bool_search.i = getelementptr inbounds i8, ptr %this, i64 24
  %0 = load ptr, ptr %m_bool_search.i, align 8
  %vtable.i = load ptr, ptr %0, align 8
  %vfn.i = getelementptr inbounds i8, ptr %vtable.i, i64 96
  %1 = load ptr, ptr %vfn.i, align 8
  %call.i = tail call noundef zeroext i1 %1(ptr noundef nonnull align 8 dereferenceable(920) %0, i32 noundef %v)
  %m_bool_vars.i = getelementptr inbounds i8, ptr %this, i64 72
  %2 = load ptr, ptr %m_bool_vars.i, align 8
  %idxprom.i.i.i = zext i32 %v to i64
  %arrayidx.i.i.i = getelementptr inbounds ptr, ptr %2, i64 %idxprom.i.i.i
  %3 = load ptr, ptr %arrayidx.i.i.i, align 8
  %tobool.not = icmp eq ptr %3, null
  br i1 %tobool.not, label %if.then, label %if.end19

if.then:                                          ; preds = %entry
  %call3 = tail call noundef i32 @_Z19get_verbosity_levelv()
  %call5 = tail call noundef zeroext i1 @_Z11is_threadedv()
  br i1 %call5, label %if.then6, label %if.else

if.then6:                                         ; preds = %if.then
  tail call void @_Z12verbose_lockv()
  %call7 = tail call noundef nonnull align 8 dereferenceable(8) ptr @_Z14verbose_streamv()
  %call8 = tail call noundef nonnull align 8 dereferenceable(8) ptr @_ZStlsISt11char_traitsIcEERSt13basic_ostreamIcT_ES5_PKc(ptr noundef nonnull align 8 dereferenceable(8) %call7, ptr noundef nonnull @.str.19)
  %call9 = tail call noundef nonnull align 8 dereferenceable(8) ptr @_ZNSolsEj(ptr noundef nonnull align 8 dereferenceable(8) %call8, i32 noundef %v)
  %call10 = tail call noundef nonnull align 8 dereferenceable(8) ptr @_ZStlsISt11char_traitsIcEERSt13basic_ostreamIcT_ES5_PKc(ptr noundef nonnull align 8 dereferenceable(8) %call9, ptr noundef nonnull @.str)
  tail call void @_Z14verbose_unlockv()
  br label %return

if.else:                                          ; preds = %if.then
  %call11 = tail call noundef nonnull align 8 dereferenceable(8) ptr @_Z14verbose_streamv()
  %call12 = tail call noundef nonnull align 8 dereferenceable(8) ptr @_ZStlsISt11char_traitsIcEERSt13basic_ostreamIcT_ES5_PKc(ptr noundef nonnull align 8 dereferenceable(8) %call11, ptr noundef nonnull @.str.19)
  %call13 = tail call noundef nonnull align 8 dereferenceable(8) ptr @_ZNSolsEj(ptr noundef nonnull align 8 dereferenceable(8) %call12, i32 noundef %v)
  %call14 = tail call noundef nonnull align 8 dereferenceable(8) ptr @_ZStlsISt11char_traitsIcEERSt13basic_ostreamIcT_ES5_PKc(ptr noundef nonnull align 8 dereferenceable(8) %call13, ptr noundef nonnull @.str)
  br label %return

if.end19:                                         ; preds = %entry
  %4 = load ptr, ptr %m_bool_search.i, align 8
  %vtable.i9 = load ptr, ptr %4, align 8
  %vfn.i10 = getelementptr inbounds i8, ptr %vtable.i9, i64 96
  %5 = load ptr, ptr %vfn.i10, align 8
  %call.i11 = tail call noundef zeroext i1 %5(ptr noundef nonnull align 8 dereferenceable(920) %4, i32 noundef %v)
  %lnot.i12 = xor i1 %call.i11, true
  %call21 = tail call noundef zeroext i1 @_ZN5arith3sls4flipEbRKNS0_4ineqE(ptr noundef nonnull align 8 dereferenceable(97) %this, i1 noundef zeroext %lnot.i12, ptr noundef nonnull align 8 dereferenceable(36) %3)
  br label %return

return:                                           ; preds = %if.then6, %if.else, %if.end19
  ret void
}